target datalayout = "e-m:e-p270:32:32-p271:32:32-p272:64:64-i64:64-i128:128-f80:128-n8:16:32:64-S128"
target triple = "x86_64-pc-linux-gnu"

%struct.AVPacket = type { ptr, i64, i64, ptr, i32, i32, i32, ptr, i32, i64, i64, ptr, ptr, %struct.AVRational }
%struct.AVRational = type { i32, i32 }
%struct.AVBufferRef = type { ptr, ptr, i64 }

@.str.5 = private unnamed_addr constant [66 x i8] c"avpkt->{data,buf} != NULL in avcodec_default_get_encode_buffer()\0A\00", align 1
@.str.6 = private unnamed_addr constant [38 x i8] c"Failed to allocate packet of size %d\0A\00", align 1

; Function Attrs: nounwind uwtable
define i32 @avcodec_default_get_encode_buffer(ptr noundef %0, ptr noundef %1, i32 noundef %2) #0 {
  %4 = alloca i32, align 4
  %5 = alloca ptr, align 8
  %6 = alloca ptr, align 8
  %7 = alloca i32, align 4
  %8 = alloca i32, align 4
  %9 = alloca i32, align 4
  store ptr %0, ptr %5, align 8, !tbaa !4
  store ptr %1, ptr %6, align 8, !tbaa !9
  store i32 %2, ptr %7, align 4, !tbaa !41
  call void @llvm.lifetime.start.p0(i64 4, ptr %8) #10
  %10 = load ptr, ptr %6, align 8, !tbaa !9
  %11 = getelementptr inbounds nuw %struct.AVPacket, ptr %10, i32 0, i32 4
  %12 = load i32, ptr %11, align 8, !tbaa !40
  %13 = icmp slt i32 %12, 0
  br i1 %13, label %19, label %14

14:                                               ; preds = %3
  %15 = load ptr, ptr %6, align 8, !tbaa !9
  %16 = getelementptr inbounds nuw %struct.AVPacket, ptr %15, i32 0, i32 4
  %17 = load i32, ptr %16, align 8, !tbaa !40
  %18 = icmp sgt i32 %17, 2147483583
  br i1 %18, label %19, label %20

19:                                               ; preds = %14, %3
  store i32 -22, ptr %4, align 4
  store i32 1, ptr %9, align 4
  br label %57

20:                                               ; preds = %14
  %21 = load ptr, ptr %6, align 8, !tbaa !9
  %22 = getelementptr inbounds nuw %struct.AVPacket, ptr %21, i32 0, i32 3
  %23 = load ptr, ptr %22, align 8, !tbaa !13
  %24 = icmp ne ptr %23, null
  br i1 %24, label %30, label %25

25:                                               ; preds = %20
  %26 = load ptr, ptr %6, align 8, !tbaa !9
  %27 = getelementptr inbounds nuw %struct.AVPacket, ptr %26, i32 0, i32 0
  %28 = load ptr, ptr %27, align 8, !tbaa !42
  %29 = icmp ne ptr %28, null
  br i1 %29, label %30, label %32

30:                                               ; preds = %25, %20
  %31 = load ptr, ptr %5, align 8, !tbaa !4
  call void (ptr, i32, ptr, ...) @av_log(ptr noundef %31, i32 noundef 16, ptr noundef @.str.5)
  store i32 -22, ptr %4, align 4
  store i32 1, ptr %9, align 4
  br label %57

32:                                               ; preds = %25
  %33 = load ptr, ptr %6, align 8, !tbaa !9
  %34 = getelementptr inbounds nuw %struct.AVPacket, ptr %33, i32 0, i32 0
  %35 = load ptr, ptr %6, align 8, !tbaa !9
  %36 = getelementptr inbounds nuw %struct.AVPacket, ptr %35, i32 0, i32 4
  %37 = load i32, ptr %36, align 8, !tbaa !40
  %38 = add nsw i32 %37, 64
  %39 = sext i32 %38 to i64
  %40 = call i32 @av_buffer_realloc(ptr noundef %34, i64 noundef %39)
  store i32 %40, ptr %8, align 4, !tbaa !41
  %41 = load i32, ptr %8, align 4, !tbaa !41
  %42 = icmp slt i32 %41, 0
  br i1 %42, label %43, label %49

43:                                               ; preds = %32
  %44 = load ptr, ptr %5, align 8, !tbaa !4
  %45 = load ptr, ptr %6, align 8, !tbaa !9
  %46 = getelementptr inbounds nuw %struct.AVPacket, ptr %45, i32 0, i32 4
  %47 = load i32, ptr %46, align 8, !tbaa !40
  call void (ptr, i32, ptr, ...) @av_log(ptr noundef %44, i32 noundef 16, ptr noundef @.str.6, i32 noundef %47)
  %48 = load i32, ptr %8, align 4, !tbaa !41
  store i32 %48, ptr %4, align 4
  store i32 1, ptr %9, align 4
  br label %57

49:                                               ; preds = %32
  %50 = load ptr, ptr %6, align 8, !tbaa !9
  %51 = getelementptr inbounds nuw %struct.AVPacket, ptr %50, i32 0, i32 0
  %52 = load ptr, ptr %51, align 8, !tbaa !42
  %53 = getelementptr inbounds nuw %struct.AVBufferRef, ptr %52, i32 0, i32 1
  %54 = load ptr, ptr %53, align 8, !tbaa !43
  %55 = load ptr, ptr %6, align 8, !tbaa !9
  %56 = getelementptr inbounds nuw %struct.AVPacket, ptr %55, i32 0, i32 3
  store ptr %54, ptr %56, align 8, !tbaa !13
  store i32 0, ptr %4, align 4
  store i32 1, ptr %9, align 4
  br label %57

57:                                               ; preds = %49, %43, %30, %19
  call void @llvm.lifetime.end.p0(i64 4, ptr %8) #10
  %58 = load i32, ptr %4, align 4
  ret i32 %58
}