; Function Attrs: nounwind uwtable
define range(i32 -2147483648, 1) i32 @avcodec_default_get_encode_buffer(ptr noundef %0, ptr noundef %1, i32 noundef %2) local_unnamed_addr #0 {
  %4 = getelementptr inbounds nuw i8, ptr %1, i64 32
  %5 = load i32, ptr %4, align 8, !tbaa !36
  %or.cond = icmp ugt i32 %5, 2147483583
  br i1 %or.cond, label %23, label %6

6:                                                ; preds = %3
  %7 = getelementptr inbounds nuw i8, ptr %1, i64 24
  %8 = load ptr, ptr %7, align 8, !tbaa !4
  %.not = icmp eq ptr %8, null
  br i1 %.not, label %9, label %11

9:                                                ; preds = %6
  %10 = load ptr, ptr %1, align 8, !tbaa !37
  %.not15 = icmp eq ptr %10, null
  br i1 %.not15, label %12, label %11

11:                                               ; preds = %9, %6
  tail call void (ptr, i32, ptr, ...) @av_log(ptr noundef %0, i32 noundef 16, ptr noundef nonnull @.str.5) #8
  br label %23

12:                                               ; preds = %9
  %13 = add nuw nsw i32 %5, 64
  %14 = zext nneg i32 %13 to i64
  %15 = tail call i32 @av_buffer_realloc(ptr noundef nonnull %1, i64 noundef %14) #8
  %16 = icmp slt i32 %15, 0
  br i1 %16, label %17, label %19

17:                                               ; preds = %12
  %18 = load i32, ptr %4, align 8, !tbaa !36
  tail call void (ptr, i32, ptr, ...) @av_log(ptr noundef %0, i32 noundef 16, ptr noundef nonnull @.str.6, i32 noundef %18) #8
  br label %23

19:                                               ; preds = %12
  %20 = load ptr, ptr %1, align 8, !tbaa !37
  %21 = getelementptr inbounds nuw i8, ptr %20, i64 8
  %22 = load ptr, ptr %21, align 8, !tbaa !38
  store ptr %22, ptr %7, align 8, !tbaa !4
  br label %23

23:                                               ; preds = %3, %19, %17, %11
  %.0 = phi i32 [ -22, %11 ], [ %15, %17 ], [ 0, %19 ], [ -22, %3 ]
  ret i32 %.0
}